target datalayout = "e-m:e-p270:32:32-p271:32:32-p272:64:64-i64:64-i128:128-f80:128-n8:16:32:64-S128"
target triple = "x86_64-pc-linux-gnu"

@.str = private unnamed_addr constant [4 x i8] c"xmp\00", align 1
@.str.1 = private unnamed_addr constant [4 x i8] c"XMP\00", align 1

; Function Attrs: nounwind uwtable
define ptr @dt_get_lightroom_xmp(i32 noundef %0) #0 {
  %2 = alloca ptr, align 8
  %3 = alloca i32, align 4
  %4 = alloca [256 x i8], align 16
  %5 = alloca i32, align 4
  %6 = alloca ptr, align 8
  %7 = alloca i32, align 4
  store i32 %0, ptr %3, align 4, !tbaa !6
  call void @llvm.lifetime.start.p0(i64 256, ptr %4) #10
  call void @llvm.lifetime.start.p0(i64 4, ptr %5) #10
  store i32 1, ptr %5, align 4, !tbaa !6
  %8 = load i32, ptr %3, align 4, !tbaa !6
  %9 = getelementptr inbounds [256 x i8], ptr %4, i64 0, i64 0
  call void @dt_image_full_path(i32 noundef %8, ptr noundef %9, i64 noundef 256, ptr noundef %5)
  call void @llvm.lifetime.start.p0(i64 8, ptr %6) #10
  %10 = getelementptr inbounds [256 x i8], ptr %4, i64 0, i64 0
  %11 = call ptr @strrchr(ptr noundef %10, i32 noundef 46) #11
  store ptr %11, ptr %6, align 8, !tbaa !10
  %12 = load ptr, ptr %6, align 8, !tbaa !10
  %13 = icmp eq ptr %12, null
  br i1 %13, label %14, label %15

14:                                               ; preds = %1
  store ptr null, ptr %2, align 8
  store i32 1, ptr %7, align 4
  br label %36

15:                                               ; preds = %1
  %16 = load ptr, ptr %6, align 8, !tbaa !10
  %17 = getelementptr inbounds i8, ptr %16, i64 1
  %18 = call ptr @strncpy(ptr noundef %17, ptr noundef @.str, i64 noundef 4) #10
  %19 = getelementptr inbounds [256 x i8], ptr %4, i64 0, i64 0
  %20 = call i32 @g_file_test(ptr noundef %19, i32 noundef 16)
  %21 = icmp ne i32 %20, 0
  br i1 %21, label %22, label %25

22:                                               ; preds = %15
  %23 = getelementptr inbounds [256 x i8], ptr %4, i64 0, i64 0
  %24 = call noalias ptr @g_strdup(ptr noundef %23)
  store ptr %24, ptr %2, align 8
  store i32 1, ptr %7, align 4
  br label %36

25:                                               ; preds = %15
  %26 = load ptr, ptr %6, align 8, !tbaa !10
  %27 = getelementptr inbounds i8, ptr %26, i64 1
  %28 = call ptr @strncpy(ptr noundef %27, ptr noundef @.str.1, i64 noundef 4) #10
  %29 = getelementptr inbounds [256 x i8], ptr %4, i64 0, i64 0
  %30 = call i32 @g_file_test(ptr noundef %29, i32 noundef 16)
  %31 = icmp ne i32 %30, 0
  br i1 %31, label %32, label %35

32:                                               ; preds = %25
  %33 = getelementptr inbounds [256 x i8], ptr %4, i64 0, i64 0
  %34 = call noalias ptr @g_strdup(ptr noundef %33)
  store ptr %34, ptr %2, align 8
  store i32 1, ptr %7, align 4
  br label %36

35:                                               ; preds = %25
  store ptr null, ptr %2, align 8
  store i32 1, ptr %7, align 4
  br label %36

36:                                               ; preds = %35, %32, %22, %14
  call void @llvm.lifetime.end.p0(i64 8, ptr %6) #10
  call void @llvm.lifetime.end.p0(i64 4, ptr %5) #10
  call void @llvm.lifetime.end.p0(i64 256, ptr %4) #10
  %37 = load ptr, ptr %2, align 8
  ret ptr %37
}