; Function Attrs: nounwind uwtable
define noalias ptr @dt_get_lightroom_xmp(i32 noundef %0) local_unnamed_addr #0 {
  %2 = alloca [256 x i8], align 16
  %3 = alloca i32, align 4
  call void @llvm.lifetime.start.p0(i64 256, ptr nonnull %2) #11
  call void @llvm.lifetime.start.p0(i64 4, ptr nonnull %3) #11
  store i32 1, ptr %3, align 4, !tbaa !6
  call void @dt_image_full_path(i32 noundef %0, ptr noundef nonnull %2, i64 noundef 256, ptr noundef nonnull %3) #11
  %4 = call ptr @strrchr(ptr noundef nonnull dereferenceable(1) %2, i32 noundef 46) #12
  %5 = icmp eq ptr %4, null
  br i1 %5, label %12, label %6

6:                                                ; preds = %1
  %7 = getelementptr inbounds nuw i8, ptr %4, i64 1
  store i32 7368056, ptr %7, align 1
  %8 = call i32 @g_file_test(ptr noundef nonnull %2, i32 noundef 16) #11
  %.not = icmp eq i32 %8, 0
  br i1 %.not, label %9, label %.sink.split

9:                                                ; preds = %6
  store i32 5262680, ptr %7, align 1
  %10 = call i32 @g_file_test(ptr noundef nonnull %2, i32 noundef 16) #11
  %.not5 = icmp eq i32 %10, 0
  br i1 %.not5, label %12, label %.sink.split

.sink.split:                                      ; preds = %9, %6
  %11 = call noalias ptr @g_strdup(ptr noundef nonnull %2) #11
  br label %12

12:                                               ; preds = %.sink.split, %9, %1
  %.0 = phi ptr [ null, %1 ], [ null, %9 ], [ %11, %.sink.split ]
  call void @llvm.lifetime.end.p0(i64 4, ptr nonnull %3) #11
  call void @llvm.lifetime.end.p0(i64 256, ptr nonnull %2) #11
  ret ptr %.0
}